target datalayout = "e-m:e-p270:32:32-p271:32:32-p272:64:64-i64:64-i128:128-f80:128-n8:16:32:64-S128"
target triple = "x86_64-pc-linux-gnu"

%struct.archive_rb_tree = type { ptr, ptr }
%struct.vdd = type { ptr, i32, ptr, i32, i32, i32, i32, i32, i32 }
%struct.isoent = type { %struct.archive_rb_node, ptr, ptr, %struct.anon.3, %struct.archive_rb_tree, %struct.anon.4, ptr, ptr, ptr, ptr, i32, %struct.anon.5, i32, i32, ptr, i32, i32, i32, i32, ptr, ptr, %struct.anon.6, i8 }
%struct.archive_rb_node = type { [2 x ptr], i64 }
%struct.anon.3 = type { ptr, ptr, i32 }
%struct.anon.4 = type { ptr, ptr, i32 }
%struct.anon.5 = type { i32, i32, i32, i32 }
%struct.anon.6 = type { ptr, ptr, ptr }
%struct.path_table = type { ptr, ptr, ptr, i32 }

; Function Attrs: nounwind uwtable
define internal void @calculate_path_table_size(ptr noundef %0) #0 {
  %2 = alloca ptr, align 8
  %3 = alloca i32, align 4
  %4 = alloca i32, align 4
  %5 = alloca ptr, align 8
  %6 = alloca ptr, align 8
  %7 = alloca i32, align 4
  %8 = alloca i32, align 4
  %9 = alloca i32, align 4
  %10 = alloca i32, align 4
  store ptr %0, ptr %2, align 8, !tbaa !277
  call void @llvm.lifetime.start.p0(i64 4, ptr %3) #13
  call void @llvm.lifetime.start.p0(i64 4, ptr %4) #13
  call void @llvm.lifetime.start.p0(i64 8, ptr %5) #13
  %11 = load ptr, ptr %2, align 8, !tbaa !277
  %12 = getelementptr inbounds nuw %struct.vdd, ptr %11, i32 0, i32 2
  %13 = load ptr, ptr %12, align 8, !tbaa !323
  store ptr %13, ptr %5, align 8, !tbaa !330
  store i32 0, ptr %4, align 4, !tbaa !11
  store i32 0, ptr %3, align 4, !tbaa !11
  br label %14

14:                                               ; preds = %77, %1
  %15 = load i32, ptr %3, align 4, !tbaa !11
  %16 = load ptr, ptr %2, align 8, !tbaa !277
  %17 = getelementptr inbounds nuw %struct.vdd, ptr %16, i32 0, i32 3
  %18 = load i32, ptr %17, align 8, !tbaa !283
  %19 = icmp slt i32 %15, %18
  br i1 %19, label %20, label %80

20:                                               ; preds = %14
  call void @llvm.lifetime.start.p0(i64 8, ptr %6) #13
  call void @llvm.lifetime.start.p0(i64 4, ptr %7) #13
  call void @llvm.lifetime.start.p0(i64 4, ptr %8) #13
  %21 = load ptr, ptr %5, align 8, !tbaa !330
  %22 = load i32, ptr %3, align 4, !tbaa !11
  %23 = sext i32 %22 to i64
  %24 = getelementptr inbounds %struct.path_table, ptr %21, i64 %23
  %25 = getelementptr inbounds nuw %struct.path_table, ptr %24, i32 0, i32 3
  %26 = load i32, ptr %25, align 8, !tbaa !326
  store i32 %26, ptr %8, align 4, !tbaa !11
  %27 = icmp eq i32 %26, 0
  br i1 %27, label %28, label %29

28:                                               ; preds = %20
  store i32 2, ptr %9, align 4
  br label %74

29:                                               ; preds = %20
  %30 = load ptr, ptr %5, align 8, !tbaa !330
  %31 = load i32, ptr %3, align 4, !tbaa !11
  %32 = sext i32 %31 to i64
  %33 = getelementptr inbounds %struct.path_table, ptr %30, i64 %32
  %34 = getelementptr inbounds nuw %struct.path_table, ptr %33, i32 0, i32 2
  %35 = load ptr, ptr %34, align 8, !tbaa !173
  store ptr %35, ptr %6, align 8, !tbaa !211
  store i32 0, ptr %7, align 4, !tbaa !11
  br label %36

36:                                               ; preds = %70, %29
  %37 = load i32, ptr %7, align 4, !tbaa !11
  %38 = load i32, ptr %8, align 4, !tbaa !11
  %39 = icmp slt i32 %37, %38
  br i1 %39, label %40, label %73

40:                                               ; preds = %36
  call void @llvm.lifetime.start.p0(i64 4, ptr %10) #13
  %41 = load ptr, ptr %6, align 8, !tbaa !211
  %42 = load i32, ptr %7, align 4, !tbaa !11
  %43 = sext i32 %42 to i64
  %44 = getelementptr inbounds ptr, ptr %41, i64 %43
  %45 = load ptr, ptr %44, align 8, !tbaa !141
  %46 = getelementptr inbounds nuw %struct.isoent, ptr %45, i32 0, i32 14
  %47 = load ptr, ptr %46, align 8, !tbaa !237
  %48 = icmp eq ptr %47, null
  br i1 %48, label %49, label %50

49:                                               ; preds = %40
  store i32 1, ptr %10, align 4, !tbaa !11
  br label %58

50:                                               ; preds = %40
  %51 = load ptr, ptr %6, align 8, !tbaa !211
  %52 = load i32, ptr %7, align 4, !tbaa !11
  %53 = sext i32 %52 to i64
  %54 = getelementptr inbounds ptr, ptr %51, i64 %53
  %55 = load ptr, ptr %54, align 8, !tbaa !141
  %56 = getelementptr inbounds nuw %struct.isoent, ptr %55, i32 0, i32 17
  %57 = load i32, ptr %56, align 8, !tbaa !343
  store i32 %57, ptr %10, align 4, !tbaa !11
  br label %58

58:                                               ; preds = %50, %49
  %59 = load i32, ptr %10, align 4, !tbaa !11
  %60 = and i32 %59, 1
  %61 = icmp ne i32 %60, 0
  br i1 %61, label %62, label %65

62:                                               ; preds = %58
  %63 = load i32, ptr %10, align 4, !tbaa !11
  %64 = add nsw i32 %63, 1
  store i32 %64, ptr %10, align 4, !tbaa !11
  br label %65

65:                                               ; preds = %62, %58
  %66 = load i32, ptr %10, align 4, !tbaa !11
  %67 = add nsw i32 8, %66
  %68 = load i32, ptr %4, align 4, !tbaa !11
  %69 = add nsw i32 %68, %67
  store i32 %69, ptr %4, align 4, !tbaa !11
  call void @llvm.lifetime.end.p0(i64 4, ptr %10) #13
  br label %70

70:                                               ; preds = %65
  %71 = load i32, ptr %7, align 4, !tbaa !11
  %72 = add nsw i32 %71, 1
  store i32 %72, ptr %7, align 4, !tbaa !11
  br label %36, !llvm.loop !344

73:                                               ; preds = %36
  store i32 0, ptr %9, align 4
  br label %74

74:                                               ; preds = %73, %28
  call void @llvm.lifetime.end.p0(i64 4, ptr %8) #13
  call void @llvm.lifetime.end.p0(i64 4, ptr %7) #13
  call void @llvm.lifetime.end.p0(i64 8, ptr %6) #13
  %75 = load i32, ptr %9, align 4
  switch i32 %75, label %91 [
    i32 0, label %76
    i32 2, label %80
  ]

76:                                               ; preds = %74
  br label %77

77:                                               ; preds = %76
  %78 = load i32, ptr %3, align 4, !tbaa !11
  %79 = add nsw i32 %78, 1
  store i32 %79, ptr %3, align 4, !tbaa !11
  br label %14, !llvm.loop !345

80:                                               ; preds = %74, %14
  %81 = load i32, ptr %4, align 4, !tbaa !11
  %82 = load ptr, ptr %2, align 8, !tbaa !277
  %83 = getelementptr inbounds nuw %struct.vdd, ptr %82, i32 0, i32 5
  store i32 %81, ptr %83, align 8, !tbaa !298
  %84 = load i32, ptr %4, align 4, !tbaa !11
  %85 = add nsw i32 %84, 4096
  %86 = sub nsw i32 %85, 1
  %87 = sdiv i32 %86, 4096
  %88 = mul nsw i32 %87, 2
  %89 = load ptr, ptr %2, align 8, !tbaa !277
  %90 = getelementptr inbounds nuw %struct.vdd, ptr %89, i32 0, i32 4
  store i32 %88, ptr %90, align 4, !tbaa !346
  call void @llvm.lifetime.end.p0(i64 8, ptr %5) #13
  call void @llvm.lifetime.end.p0(i64 4, ptr %4) #13
  call void @llvm.lifetime.end.p0(i64 4, ptr %3) #13
  ret void

91:                                               ; preds = %74
  unreachable
}