; Function Attrs: nofree norecurse nosync nounwind memory(read, argmem: readwrite, inaccessiblemem: none) uwtable
define internal fastcc void @calculate_path_table_size(ptr noundef captures(none) %0) unnamed_addr #14 {
  %2 = getelementptr inbounds nuw i8, ptr %0, i64 16
  %3 = load ptr, ptr %2, align 8, !tbaa !160
  %4 = getelementptr inbounds nuw i8, ptr %0, i64 24
  %5 = load i32, ptr %4, align 8, !tbaa !159
  %6 = icmp sgt i32 %5, 0
  br i1 %6, label %.lr.ph38.preheader, label %._crit_edge39

.lr.ph38.preheader:                               ; preds = %1
  %wide.trip.count47 = zext nneg i32 %5 to i64
  br label %.lr.ph38

.lr.ph38:                                         ; preds = %.lr.ph38.preheader, %._crit_edge
  %indvars.iv44 = phi i64 [ 0, %.lr.ph38.preheader ], [ %indvars.iv.next45, %._crit_edge ]
  %.02635 = phi i32 [ 0, %.lr.ph38.preheader ], [ %.3.lcssa, %._crit_edge ]
  %7 = getelementptr inbounds nuw %struct.path_table, ptr %3, i64 %indvars.iv44
  %8 = getelementptr inbounds nuw i8, ptr %7, i64 24
  %9 = load i32, ptr %8, align 8, !tbaa !165
  %10 = icmp eq i32 %9, 0
  br i1 %10, label %._crit_edge39, label %11

11:                                               ; preds = %.lr.ph38
  %12 = getelementptr inbounds nuw i8, ptr %7, i64 16
  %13 = load ptr, ptr %12, align 8, !tbaa !164
  %14 = icmp sgt i32 %9, 0
  br i1 %14, label %.lr.ph.preheader, label %._crit_edge

.lr.ph.preheader:                                 ; preds = %11
  %wide.trip.count = zext nneg i32 %9 to i64
  br label %.lr.ph

.lr.ph:                                           ; preds = %.lr.ph.preheader, %23
  %indvars.iv = phi i64 [ 0, %.lr.ph.preheader ], [ %indvars.iv.next, %23 ]
  %.333 = phi i32 [ %.02635, %.lr.ph.preheader ], [ %26, %23 ]
  %15 = getelementptr inbounds nuw ptr, ptr %13, i64 %indvars.iv
  %16 = load ptr, ptr %15, align 8, !tbaa !106
  %17 = getelementptr inbounds nuw i8, ptr %16, i64 168
  %18 = load ptr, ptr %17, align 8, !tbaa !188
  %19 = icmp eq ptr %18, null
  br i1 %19, label %23, label %20

20:                                               ; preds = %.lr.ph
  %21 = getelementptr inbounds nuw i8, ptr %16, i64 184
  %22 = load i32, ptr %21, align 8, !tbaa !189
  br label %23

23:                                               ; preds = %.lr.ph, %20
  %.0 = phi i32 [ %22, %20 ], [ 1, %.lr.ph ]
  %24 = and i32 %.0, 1
  %spec.select = add i32 %.333, 8
  %25 = add i32 %spec.select, %.0
  %26 = add i32 %25, %24
  %indvars.iv.next = add nuw nsw i64 %indvars.iv, 1
  %exitcond.not = icmp eq i64 %indvars.iv.next, %wide.trip.count
  br i1 %exitcond.not, label %._crit_edge, label %.lr.ph, !llvm.loop !190

._crit_edge:                                      ; preds = %23, %11
  %.3.lcssa = phi i32 [ %.02635, %11 ], [ %26, %23 ]
  %indvars.iv.next45 = add nuw nsw i64 %indvars.iv44, 1
  %exitcond48.not = icmp eq i64 %indvars.iv.next45, %wide.trip.count47
  br i1 %exitcond48.not, label %._crit_edge39, label %.lr.ph38, !llvm.loop !191

._crit_edge39:                                    ; preds = %._crit_edge, %.lr.ph38, %1
  %.026.lcssa = phi i32 [ 0, %1 ], [ %.02635, %.lr.ph38 ], [ %.3.lcssa, %._crit_edge ]
  %27 = getelementptr inbounds nuw i8, ptr %0, i64 32
  store i32 %.026.lcssa, ptr %27, align 8, !tbaa !192
  %28 = add nsw i32 %.026.lcssa, 4095
  %29 = sdiv i32 %28, 4096
  %30 = shl nsw i32 %29, 1
  %31 = getelementptr inbounds nuw i8, ptr %0, i64 28
  store i32 %30, ptr %31, align 4, !tbaa !193
  ret void
}